target datalayout = "e-m:e-p270:32:32-p271:32:32-p272:64:64-i64:64-i128:128-f80:128-n8:16:32:64-S128"
target triple = "x86_64-pc-linux-gnu"

%"struct.meshopt::KDNode" = type { %union.anon, i32 }
%union.anon = type { float }

; Function Attrs: mustprogress uwtable
define internal void @_ZN7meshoptL13kdtreeNearestEPNS_6KDNodeEjPKfmPKhS3_RjRf(ptr noundef %0, i32 noundef %1, ptr noundef %2, i64 noundef %3, ptr noundef %4, ptr noundef %5, ptr noundef nonnull align 4 dereferenceable(4) %6, ptr noundef nonnull align 4 dereferenceable(4) %7) #2 {
  %9 = alloca ptr, align 8
  %10 = alloca i32, align 4
  %11 = alloca ptr, align 8
  %12 = alloca i64, align 8
  %13 = alloca ptr, align 8
  %14 = alloca ptr, align 8
  %15 = alloca ptr, align 8
  %16 = alloca ptr, align 8
  %17 = alloca ptr, align 8
  %18 = alloca i32, align 4
  %19 = alloca i32, align 4
  %20 = alloca i32, align 4
  %21 = alloca ptr, align 8
  %22 = alloca float, align 4
  %23 = alloca float, align 4
  %24 = alloca float, align 4
  %25 = alloca i32, align 4
  %26 = alloca i32, align 4
  store ptr %0, ptr %9, align 8, !tbaa !27
  store i32 %1, ptr %10, align 4, !tbaa !23
  store ptr %2, ptr %11, align 8, !tbaa !15
  store i64 %3, ptr %12, align 8, !tbaa !4
  store ptr %4, ptr %13, align 8, !tbaa !13
  store ptr %5, ptr %14, align 8, !tbaa !15
  store ptr %6, ptr %15, align 8, !tbaa !11
  store ptr %7, ptr %16, align 8, !tbaa !15
  call void @llvm.lifetime.start.p0(i64 8, ptr %17) #11
  %27 = load ptr, ptr %9, align 8, !tbaa !27
  %28 = load i32, ptr %10, align 4, !tbaa !23
  %29 = zext i32 %28 to i64
  %30 = getelementptr inbounds nuw %"struct.meshopt::KDNode", ptr %27, i64 %29
  store ptr %30, ptr %17, align 8, !tbaa !27
  %31 = load ptr, ptr %17, align 8, !tbaa !27
  %32 = getelementptr inbounds nuw %"struct.meshopt::KDNode", ptr %31, i32 0, i32 1
  %33 = load i32, ptr %32, align 4
  %34 = and i32 %33, 3
  %35 = icmp eq i32 %34, 3
  br i1 %35, label %36, label %132

36:                                               ; preds = %8
  call void @llvm.lifetime.start.p0(i64 4, ptr %18) #11
  store i32 0, ptr %18, align 4, !tbaa !23
  br label %37

37:                                               ; preds = %128, %36
  %38 = load i32, ptr %18, align 4, !tbaa !23
  %39 = load ptr, ptr %17, align 8, !tbaa !27
  %40 = getelementptr inbounds nuw %"struct.meshopt::KDNode", ptr %39, i32 0, i32 1
  %41 = load i32, ptr %40, align 4
  %42 = lshr i32 %41, 2
  %43 = icmp ule i32 %38, %42
  br i1 %43, label %45, label %44

44:                                               ; preds = %37
  store i32 2, ptr %19, align 4
  call void @llvm.lifetime.end.p0(i64 4, ptr %18) #11
  br label %131

45:                                               ; preds = %37
  call void @llvm.lifetime.start.p0(i64 4, ptr %20) #11
  %46 = load ptr, ptr %9, align 8, !tbaa !27
  %47 = load i32, ptr %10, align 4, !tbaa !23
  %48 = load i32, ptr %18, align 4, !tbaa !23
  %49 = add i32 %47, %48
  %50 = zext i32 %49 to i64
  %51 = getelementptr inbounds nuw %"struct.meshopt::KDNode", ptr %46, i64 %50
  %52 = getelementptr inbounds nuw %"struct.meshopt::KDNode", ptr %51, i32 0, i32 0
  %53 = load i32, ptr %52, align 4, !tbaa !31
  store i32 %53, ptr %20, align 4, !tbaa !23
  %54 = load ptr, ptr %13, align 8, !tbaa !13
  %55 = load i32, ptr %20, align 4, !tbaa !23
  %56 = zext i32 %55 to i64
  %57 = getelementptr inbounds nuw i8, ptr %54, i64 %56
  %58 = load i8, ptr %57, align 1, !tbaa !31
  %59 = icmp ne i8 %58, 0
  br i1 %59, label %60, label %61

60:                                               ; preds = %45
  store i32 4, ptr %19, align 4
  br label %125

61:                                               ; preds = %45
  call void @llvm.lifetime.start.p0(i64 8, ptr %21) #11
  %62 = load ptr, ptr %11, align 8, !tbaa !15
  %63 = load i32, ptr %20, align 4, !tbaa !23
  %64 = zext i32 %63 to i64
  %65 = load i64, ptr %12, align 8, !tbaa !4
  %66 = mul i64 %64, %65
  %67 = getelementptr inbounds nuw float, ptr %62, i64 %66
  store ptr %67, ptr %21, align 8, !tbaa !15
  call void @llvm.lifetime.start.p0(i64 4, ptr %22) #11
  %68 = load ptr, ptr %21, align 8, !tbaa !15
  %69 = getelementptr inbounds float, ptr %68, i64 0
  %70 = load float, ptr %69, align 4, !tbaa !17
  %71 = load ptr, ptr %14, align 8, !tbaa !15
  %72 = getelementptr inbounds float, ptr %71, i64 0
  %73 = load float, ptr %72, align 4, !tbaa !17
  %74 = fsub float %70, %73
  %75 = load ptr, ptr %21, align 8, !tbaa !15
  %76 = getelementptr inbounds float, ptr %75, i64 0
  %77 = load float, ptr %76, align 4, !tbaa !17
  %78 = load ptr, ptr %14, align 8, !tbaa !15
  %79 = getelementptr inbounds float, ptr %78, i64 0
  %80 = load float, ptr %79, align 4, !tbaa !17
  %81 = fsub float %77, %80
  %82 = load ptr, ptr %21, align 8, !tbaa !15
  %83 = getelementptr inbounds float, ptr %82, i64 1
  %84 = load float, ptr %83, align 4, !tbaa !17
  %85 = load ptr, ptr %14, align 8, !tbaa !15
  %86 = getelementptr inbounds float, ptr %85, i64 1
  %87 = load float, ptr %86, align 4, !tbaa !17
  %88 = fsub float %84, %87
  %89 = load ptr, ptr %21, align 8, !tbaa !15
  %90 = getelementptr inbounds float, ptr %89, i64 1
  %91 = load float, ptr %90, align 4, !tbaa !17
  %92 = load ptr, ptr %14, align 8, !tbaa !15
  %93 = getelementptr inbounds float, ptr %92, i64 1
  %94 = load float, ptr %93, align 4, !tbaa !17
  %95 = fsub float %91, %94
  %96 = fmul float %88, %95
  %97 = call float @llvm.fmuladd.f32(float %74, float %81, float %96)
  %98 = load ptr, ptr %21, align 8, !tbaa !15
  %99 = getelementptr inbounds float, ptr %98, i64 2
  %100 = load float, ptr %99, align 4, !tbaa !17
  %101 = load ptr, ptr %14, align 8, !tbaa !15
  %102 = getelementptr inbounds float, ptr %101, i64 2
  %103 = load float, ptr %102, align 4, !tbaa !17
  %104 = fsub float %100, %103
  %105 = load ptr, ptr %21, align 8, !tbaa !15
  %106 = getelementptr inbounds float, ptr %105, i64 2
  %107 = load float, ptr %106, align 4, !tbaa !17
  %108 = load ptr, ptr %14, align 8, !tbaa !15
  %109 = getelementptr inbounds float, ptr %108, i64 2
  %110 = load float, ptr %109, align 4, !tbaa !17
  %111 = fsub float %107, %110
  %112 = call float @llvm.fmuladd.f32(float %104, float %111, float %97)
  store float %112, ptr %22, align 4, !tbaa !17
  call void @llvm.lifetime.start.p0(i64 4, ptr %23) #11
  %113 = load float, ptr %22, align 4, !tbaa !17
  %114 = call float @sqrtf(float noundef %113) #11, !tbaa !23
  store float %114, ptr %23, align 4, !tbaa !17
  %115 = load float, ptr %23, align 4, !tbaa !17
  %116 = load ptr, ptr %16, align 8, !tbaa !15
  %117 = load float, ptr %116, align 4, !tbaa !17
  %118 = fcmp olt float %115, %117
  br i1 %118, label %119, label %124

119:                                              ; preds = %61
  %120 = load i32, ptr %20, align 4, !tbaa !23
  %121 = load ptr, ptr %15, align 8, !tbaa !11
  store i32 %120, ptr %121, align 4, !tbaa !23
  %122 = load float, ptr %23, align 4, !tbaa !17
  %123 = load ptr, ptr %16, align 8, !tbaa !15
  store float %122, ptr %123, align 4, !tbaa !17
  br label %124

124:                                              ; preds = %119, %61
  call void @llvm.lifetime.end.p0(i64 4, ptr %23) #11
  call void @llvm.lifetime.end.p0(i64 4, ptr %22) #11
  call void @llvm.lifetime.end.p0(i64 8, ptr %21) #11
  store i32 0, ptr %19, align 4
  br label %125

125:                                              ; preds = %124, %60
  call void @llvm.lifetime.end.p0(i64 4, ptr %20) #11
  %126 = load i32, ptr %19, align 4
  switch i32 %126, label %191 [
    i32 0, label %127
    i32 4, label %128
  ]

127:                                              ; preds = %125
  br label %128

128:                                              ; preds = %127, %125
  %129 = load i32, ptr %18, align 4, !tbaa !23
  %130 = add i32 %129, 1
  store i32 %130, ptr %18, align 4, !tbaa !23
  br label %37, !llvm.loop !70

131:                                              ; preds = %44
  br label %190

132:                                              ; preds = %8
  call void @llvm.lifetime.start.p0(i64 4, ptr %24) #11
  %133 = load ptr, ptr %14, align 8, !tbaa !15
  %134 = load ptr, ptr %17, align 8, !tbaa !27
  %135 = getelementptr inbounds nuw %"struct.meshopt::KDNode", ptr %134, i32 0, i32 1
  %136 = load i32, ptr %135, align 4
  %137 = and i32 %136, 3
  %138 = zext i32 %137 to i64
  %139 = getelementptr inbounds nuw float, ptr %133, i64 %138
  %140 = load float, ptr %139, align 4, !tbaa !17
  %141 = load ptr, ptr %17, align 8, !tbaa !27
  %142 = getelementptr inbounds nuw %"struct.meshopt::KDNode", ptr %141, i32 0, i32 0
  %143 = load float, ptr %142, align 4, !tbaa !31
  %144 = fsub float %140, %143
  store float %144, ptr %24, align 4, !tbaa !17
  call void @llvm.lifetime.start.p0(i64 4, ptr %25) #11
  %145 = load float, ptr %24, align 4, !tbaa !17
  %146 = fcmp ole float %145, 0.000000e+00
  br i1 %146, label %147, label %148

147:                                              ; preds = %132
  br label %153

148:                                              ; preds = %132
  %149 = load ptr, ptr %17, align 8, !tbaa !27
  %150 = getelementptr inbounds nuw %"struct.meshopt::KDNode", ptr %149, i32 0, i32 1
  %151 = load i32, ptr %150, align 4
  %152 = lshr i32 %151, 2
  br label %153

153:                                              ; preds = %148, %147
  %154 = phi i32 [ 0, %147 ], [ %152, %148 ]
  store i32 %154, ptr %25, align 4, !tbaa !23
  call void @llvm.lifetime.start.p0(i64 4, ptr %26) #11
  %155 = load i32, ptr %25, align 4, !tbaa !23
  %156 = load ptr, ptr %17, align 8, !tbaa !27
  %157 = getelementptr inbounds nuw %"struct.meshopt::KDNode", ptr %156, i32 0, i32 1
  %158 = load i32, ptr %157, align 4
  %159 = lshr i32 %158, 2
  %160 = xor i32 %155, %159
  store i32 %160, ptr %26, align 4, !tbaa !23
  %161 = load ptr, ptr %9, align 8, !tbaa !27
  %162 = load i32, ptr %10, align 4, !tbaa !23
  %163 = add i32 %162, 1
  %164 = load i32, ptr %25, align 4, !tbaa !23
  %165 = add i32 %163, %164
  %166 = load ptr, ptr %11, align 8, !tbaa !15
  %167 = load i64, ptr %12, align 8, !tbaa !4
  %168 = load ptr, ptr %13, align 8, !tbaa !13
  %169 = load ptr, ptr %14, align 8, !tbaa !15
  %170 = load ptr, ptr %15, align 8, !tbaa !11
  %171 = load ptr, ptr %16, align 8, !tbaa !15
  call void @_ZN7meshoptL13kdtreeNearestEPNS_6KDNodeEjPKfmPKhS3_RjRf(ptr noundef %161, i32 noundef %165, ptr noundef %166, i64 noundef %167, ptr noundef %168, ptr noundef %169, ptr noundef nonnull align 4 dereferenceable(4) %170, ptr noundef nonnull align 4 dereferenceable(4) %171)
  %172 = load float, ptr %24, align 4, !tbaa !17
  %173 = call float @llvm.fabs.f32(float %172)
  %174 = load ptr, ptr %16, align 8, !tbaa !15
  %175 = load float, ptr %174, align 4, !tbaa !17
  %176 = fcmp ole float %173, %175
  br i1 %176, label %177, label %189

177:                                              ; preds = %153
  %178 = load ptr, ptr %9, align 8, !tbaa !27
  %179 = load i32, ptr %10, align 4, !tbaa !23
  %180 = add i32 %179, 1
  %181 = load i32, ptr %26, align 4, !tbaa !23
  %182 = add i32 %180, %181
  %183 = load ptr, ptr %11, align 8, !tbaa !15
  %184 = load i64, ptr %12, align 8, !tbaa !4
  %185 = load ptr, ptr %13, align 8, !tbaa !13
  %186 = load ptr, ptr %14, align 8, !tbaa !15
  %187 = load ptr, ptr %15, align 8, !tbaa !11
  %188 = load ptr, ptr %16, align 8, !tbaa !15
  call void @_ZN7meshoptL13kdtreeNearestEPNS_6KDNodeEjPKfmPKhS3_RjRf(ptr noundef %178, i32 noundef %182, ptr noundef %183, i64 noundef %184, ptr noundef %185, ptr noundef %186, ptr noundef nonnull align 4 dereferenceable(4) %187, ptr noundef nonnull align 4 dereferenceable(4) %188)
  br label %189

189:                                              ; preds = %177, %153
  call void @llvm.lifetime.end.p0(i64 4, ptr %26) #11
  call void @llvm.lifetime.end.p0(i64 4, ptr %25) #11
  call void @llvm.lifetime.end.p0(i64 4, ptr %24) #11
  br label %190

190:                                              ; preds = %189, %131
  call void @llvm.lifetime.end.p0(i64 8, ptr %17) #11
  ret void

191:                                              ; preds = %125
  unreachable
}