; Function Attrs: mustprogress nofree nosync nounwind memory(argmem: readwrite) uwtable
define internal fastcc void @_ZN7meshoptL13kdtreeNearestEPNS_6KDNodeEjPKfmPKhS3_RjRf(ptr noundef readonly captures(none) %0, i32 noundef %1, ptr noundef readonly captures(none) %2, ptr noundef readonly captures(none) %3, ptr noundef nonnull readonly captures(none) %4, ptr noundef nonnull writeonly align 4 captures(none) dereferenceable(4) %5, ptr noundef nonnull align 4 captures(none) dereferenceable(4) %6) unnamed_addr #5 {
  %8 = zext i32 %1 to i64
  %9 = getelementptr inbounds nuw %"struct.meshopt::KDNode", ptr %0, i64 %8
  %10 = getelementptr inbounds nuw i8, ptr %9, i64 4
  %11 = load i32, ptr %10, align 4
  %12 = and i32 %11, 3
  %13 = icmp eq i32 %12, 3
  br i1 %13, label %.preheader, label %.lr.ph

.preheader:                                       ; preds = %tailrecurse, %7
  %14 = phi i64 [ %8, %7 ], [ %68, %tailrecurse ]
  %.tr62.lcssa = phi i32 [ %1, %7 ], [ %67, %tailrecurse ]
  %15 = getelementptr inbounds nuw %"struct.meshopt::KDNode", ptr %0, i64 %14, i32 1
  %16 = getelementptr inbounds nuw i8, ptr %4, i64 4
  %17 = getelementptr inbounds nuw i8, ptr %4, i64 8
  br label %18

18:                                               ; preds = %.preheader, %46
  %indvars.iv = phi i64 [ 0, %.preheader ], [ %indvars.iv.next, %46 ]
  %19 = trunc nuw nsw i64 %indvars.iv to i32
  %20 = add i32 %.tr62.lcssa, %19
  %21 = zext i32 %20 to i64
  %22 = getelementptr inbounds nuw %"struct.meshopt::KDNode", ptr %0, i64 %21
  %23 = load i32, ptr %22, align 4, !tbaa !42
  %24 = zext i32 %23 to i64
  %25 = getelementptr inbounds nuw i8, ptr %3, i64 %24
  %26 = load i8, ptr %25, align 1, !tbaa !42
  %.not61 = icmp eq i8 %26, 0
  br i1 %.not61, label %27, label %46

27:                                               ; preds = %18
  %.idx = mul nuw nsw i64 %24, 24
  %28 = getelementptr inbounds nuw i8, ptr %2, i64 %.idx
  %29 = load float, ptr %28, align 4, !tbaa !28
  %30 = load float, ptr %4, align 4, !tbaa !28
  %31 = fsub float %29, %30
  %32 = getelementptr inbounds nuw i8, ptr %28, i64 4
  %33 = load float, ptr %32, align 4, !tbaa !28
  %34 = load float, ptr %16, align 4, !tbaa !28
  %35 = fsub float %33, %34
  %36 = fmul float %35, %35
  %37 = tail call float @llvm.fmuladd.f32(float %31, float %31, float %36)
  %38 = getelementptr inbounds nuw i8, ptr %28, i64 8
  %39 = load float, ptr %38, align 4, !tbaa !28
  %40 = load float, ptr %17, align 4, !tbaa !28
  %41 = fsub float %39, %40
  %42 = tail call float @llvm.fmuladd.f32(float %41, float %41, float %37)
  %sqrt = tail call float @llvm.sqrt.f32(float %42)
  %43 = load float, ptr %6, align 4, !tbaa !28
  %44 = fcmp olt float %sqrt, %43
  br i1 %44, label %45, label %46

45:                                               ; preds = %27
  store i32 %23, ptr %5, align 4, !tbaa !16
  store float %sqrt, ptr %6, align 4, !tbaa !28
  br label %46

46:                                               ; preds = %27, %45, %18
  %indvars.iv.next = add nuw nsw i64 %indvars.iv, 1
  %47 = load i32, ptr %15, align 4
  %48 = lshr i32 %47, 2
  %49 = zext nneg i32 %48 to i64
  %.not.not = icmp samesign ult i64 %indvars.iv, %49
  br i1 %.not.not, label %18, label %.loopexit, !llvm.loop !58

.lr.ph:                                           ; preds = %7, %tailrecurse
  %50 = phi i32 [ %72, %tailrecurse ], [ %12, %7 ]
  %51 = phi i32 [ %71, %tailrecurse ], [ %11, %7 ]
  %52 = phi ptr [ %69, %tailrecurse ], [ %9, %7 ]
  %.tr6273 = phi i32 [ %67, %tailrecurse ], [ %1, %7 ]
  %53 = zext nneg i32 %50 to i64
  %54 = getelementptr inbounds nuw float, ptr %4, i64 %53
  %55 = load float, ptr %54, align 4, !tbaa !28
  %56 = load float, ptr %52, align 4, !tbaa !42
  %57 = fsub float %55, %56
  %58 = fcmp ugt float %57, 0.000000e+00
  %59 = lshr i32 %51, 2
  %60 = select i1 %58, i32 %59, i32 0
  %61 = add i32 %.tr6273, 1
  %62 = add i32 %60, %61
  tail call fastcc void @_ZN7meshoptL13kdtreeNearestEPNS_6KDNodeEjPKfmPKhS3_RjRf(ptr noundef nonnull %0, i32 noundef %62, ptr noundef %2, ptr noundef %3, ptr noundef %4, ptr noundef nonnull align 4 dereferenceable(4) %5, ptr noundef nonnull align 4 dereferenceable(4) %6)
  %63 = tail call float @llvm.fabs.f32(float %57)
  %64 = load float, ptr %6, align 4, !tbaa !28
  %65 = fcmp ugt float %63, %64
  br i1 %65, label %.loopexit, label %tailrecurse

tailrecurse:                                      ; preds = %.lr.ph
  %66 = xor i32 %60, %59
  %67 = add i32 %66, %61
  %68 = zext i32 %67 to i64
  %69 = getelementptr inbounds nuw %"struct.meshopt::KDNode", ptr %0, i64 %68
  %70 = getelementptr inbounds nuw i8, ptr %69, i64 4
  %71 = load i32, ptr %70, align 4
  %72 = and i32 %71, 3
  %73 = icmp eq i32 %72, 3
  br i1 %73, label %.preheader, label %.lr.ph

.loopexit:                                        ; preds = %.lr.ph, %46
  ret void
}